target datalayout = "e-m:e-p270:32:32-p271:32:32-p272:64:64-i64:64-i128:128-f80:128-n8:16:32:64-S128"
target triple = "x86_64-pc-linux-gnu"

%struct.LogicalRepWorker = type { i32, i64, i8, i16, ptr, i32, i32, i32, i32, i8, i64, i8, ptr, i32, i8, i64, i64, i64, i64, i64 }
%struct.Subscription = type { i32, i32, i64, ptr, i32, i8, i8, i8, i8, i8, i8, i8, i8, i8, ptr, ptr, ptr, ptr, ptr }

@MySubscription = dso_local global ptr null, align 8
@MyLogicalRepWorker = external global ptr, align 8
@.str.3 = private unnamed_addr constant [9 x i8] c"worker.c\00", align 1
@.str.27 = private unnamed_addr constant [17 x i8] c"libpqwalreceiver\00", align 1
@.str.28 = private unnamed_addr constant [53 x i8] c"connecting to publisher using connection string \22%s\22\00", align 1
@__func__.SetupApplyOrSyncWorker = private unnamed_addr constant [23 x i8] c"SetupApplyOrSyncWorker\00", align 1

; Function Attrs: nounwind uwtable
define dso_local void @SetupApplyOrSyncWorker(i32 noundef %0) #0 {
  %2 = alloca i32, align 4
  store i32 %0, ptr %2, align 4
  %3 = load i32, ptr %2, align 4
  call void @logicalrep_worker_attach(i32 noundef %3)
  call void @pqsignal_be(i32 noundef 1, ptr noundef @SignalHandlerForConfigReload)
  call void @pqsignal_be(i32 noundef 15, ptr noundef @die)
  call void @BackgroundWorkerUnblockSignals()
  %4 = call i64 @GetCurrentTimestamp()
  %5 = load ptr, ptr @MyLogicalRepWorker, align 8
  %6 = getelementptr inbounds nuw %struct.LogicalRepWorker, ptr %5, i32 0, i32 19
  store i64 %4, ptr %6, align 8
  %7 = load ptr, ptr @MyLogicalRepWorker, align 8
  %8 = getelementptr inbounds nuw %struct.LogicalRepWorker, ptr %7, i32 0, i32 17
  store i64 %4, ptr %8, align 8
  %9 = load ptr, ptr @MyLogicalRepWorker, align 8
  %10 = getelementptr inbounds nuw %struct.LogicalRepWorker, ptr %9, i32 0, i32 16
  store i64 %4, ptr %10, align 8
  call void @load_file(ptr noundef @.str.27, i1 noundef zeroext false)
  call void @InitializeLogRepWorker()
  call void @before_shmem_exit(ptr noundef @replorigin_reset, i64 noundef 0)
  br label %11

11:                                               ; preds = %1
  br i1 false, label %12, label %14

12:                                               ; preds = %11
  %13 = call zeroext i1 @errstart_cold(i32 noundef 14, ptr noundef null) #13
  br i1 %13, label %16, label %21

14:                                               ; preds = %11
  %15 = call zeroext i1 @errstart(i32 noundef 14, ptr noundef null)
  br i1 %15, label %16, label %21

16:                                               ; preds = %14, %12
  %17 = load ptr, ptr @MySubscription, align 8
  %18 = getelementptr inbounds nuw %struct.Subscription, ptr %17, i32 0, i32 14
  %19 = load ptr, ptr %18, align 8
  %20 = call i32 (ptr, ...) @errmsg_internal(ptr noundef @.str.28, ptr noundef %19)
  call void @errfinish(ptr noundef @.str.3, i32 noundef 4775, ptr noundef @__func__.SetupApplyOrSyncWorker)
  br label %21

21:                                               ; preds = %16, %14, %12
  br label %22

22:                                               ; preds = %21
  call void @CacheRegisterSyscacheCallback(i32 noundef 68, ptr noundef @invalidate_syncing_table_states, i64 noundef 0)
  ret void
}