; Function Attrs: nounwind uwtable
define dso_local void @SetupApplyOrSyncWorker(i32 noundef %0) local_unnamed_addr #0 {
  tail call void @logicalrep_worker_attach(i32 noundef %0) #17
  tail call void @pqsignal_be(i32 noundef 1, ptr noundef nonnull @SignalHandlerForConfigReload) #17
  tail call void @pqsignal_be(i32 noundef 15, ptr noundef nonnull @die) #17
  tail call void @BackgroundWorkerUnblockSignals() #17
  %2 = tail call i64 @GetCurrentTimestamp() #17
  %3 = load ptr, ptr @MyLogicalRepWorker, align 8
  %4 = getelementptr inbounds nuw i8, ptr %3, i64 120
  store i64 %2, ptr %4, align 8
  %5 = getelementptr inbounds nuw i8, ptr %3, i64 104
  store i64 %2, ptr %5, align 8
  %6 = getelementptr inbounds nuw i8, ptr %3, i64 96
  store i64 %2, ptr %6, align 8
  tail call void @load_file(ptr noundef nonnull @.str.27, i1 noundef zeroext false) #17
  tail call void @InitializeLogRepWorker()
  tail call void @before_shmem_exit(ptr noundef nonnull @replorigin_reset, i64 noundef 0) #17
  %7 = tail call zeroext i1 @errstart(i32 noundef 14, ptr noundef null) #17
  br i1 %7, label %8, label %13

8:                                                ; preds = %1
  %9 = load ptr, ptr @MySubscription, align 8
  %10 = getelementptr inbounds nuw i8, ptr %9, i64 40
  %11 = load ptr, ptr %10, align 8
  %12 = tail call i32 (ptr, ...) @errmsg_internal(ptr noundef nonnull @.str.28, ptr noundef %11) #17
  tail call void @errfinish(ptr noundef nonnull @.str.3, i32 noundef 4775, ptr noundef nonnull @__func__.SetupApplyOrSyncWorker) #17
  br label %13

13:                                               ; preds = %1, %8
  tail call void @CacheRegisterSyscacheCallback(i32 noundef 68, ptr noundef nonnull @invalidate_syncing_table_states, i64 noundef 0) #17
  ret void
}